target datalayout = "e-m:e-p270:32:32-p271:32:32-p272:64:64-i64:64-i128:128-f80:128-n8:16:32:64-S128"
target triple = "x86_64-pc-linux-gnu"

%struct.SDL_GPUDevice = type { ptr, ptr, ptr, ptr, ptr, ptr, ptr, ptr, ptr, ptr, ptr, ptr, ptr, ptr, ptr, ptr, ptr, ptr, ptr, ptr, ptr, ptr, ptr, ptr, ptr, ptr, ptr, ptr, ptr, ptr, ptr, ptr, ptr, ptr, ptr, ptr, ptr, ptr, ptr, ptr, ptr, ptr, ptr, ptr, ptr, ptr, ptr, ptr, ptr, ptr, ptr, ptr, ptr, ptr, ptr, ptr, ptr, ptr, ptr, ptr, ptr, ptr, ptr, ptr, ptr, ptr, ptr, ptr, ptr, ptr, ptr, ptr, ptr, ptr, ptr, ptr, ptr, ptr, ptr, ptr, ptr, ptr, ptr, ptr, ptr, i32, i8 }
%struct.CommandBufferCommonHeader = type { ptr, %struct.RenderPass, i8, %struct.Pass, i8, %struct.Pass, i8, i8, i8 }
%struct.RenderPass = type { ptr, i8, [4 x ptr], i32, ptr }
%struct.Pass = type { ptr, i8 }

@.str.4 = private unnamed_addr constant [26 x i8] c"Parameter '%s' is invalid\00", align 1
@.str.8 = private unnamed_addr constant [103 x i8] c"generated/home/dtcxzyw/WorkSpace/Projects/compilers/llvm-opt-benchmark/bench/sdl/SDL/src/gpu/SDL_gpu.c\00", align 1
@.str.274 = private unnamed_addr constant [13 x i8] c"compute_pass\00", align 1
@.str.275 = private unnamed_addr constant [17 x i8] c"compute_pipeline\00", align 1
@SDL_BindGPUComputePipeline_REAL.sdl_assert_data = internal global { i8, [3 x i8], i32, ptr, ptr, i32, [4 x i8], ptr, ptr } { i8 0, [3 x i8] zeroinitializer, i32 0, ptr @.str.277, ptr null, i32 0, [4 x i8] zeroinitializer, ptr null, ptr null }, align 8
@__func__.SDL_BindGPUComputePipeline_REAL = private unnamed_addr constant [32 x i8] c"SDL_BindGPUComputePipeline_REAL\00", align 1

; Function Attrs: nounwind uwtable
define hidden void @SDL_BindGPUComputePipeline_REAL(ptr noundef %0, ptr noundef %1) #0 {
  %3 = alloca ptr, align 8
  %4 = alloca ptr, align 8
  %5 = alloca ptr, align 8
  %6 = alloca i32, align 4
  %7 = alloca i32, align 4
  store ptr %0, ptr %3, align 8
  store ptr %1, ptr %4, align 8
  call void @llvm.lifetime.start.p0(i64 8, ptr %5) #6
  %8 = load ptr, ptr %3, align 8
  %9 = icmp eq ptr %8, null
  br i1 %9, label %10, label %12

10:                                               ; preds = %2
  %11 = call zeroext i1 (ptr, ...) @SDL_SetError_REAL(ptr noundef @.str.4, ptr noundef @.str.274)
  store i32 1, ptr %6, align 4
  br label %68

12:                                               ; preds = %2
  %13 = load ptr, ptr %4, align 8
  %14 = icmp eq ptr %13, null
  br i1 %14, label %15, label %17

15:                                               ; preds = %12
  %16 = call zeroext i1 (ptr, ...) @SDL_SetError_REAL(ptr noundef @.str.4, ptr noundef @.str.275)
  store i32 1, ptr %6, align 4
  br label %68

17:                                               ; preds = %12
  %18 = load ptr, ptr %3, align 8
  %19 = getelementptr inbounds nuw %struct.Pass, ptr %18, i32 0, i32 0
  %20 = load ptr, ptr %19, align 8
  %21 = getelementptr inbounds nuw %struct.CommandBufferCommonHeader, ptr %20, i32 0, i32 0
  %22 = load ptr, ptr %21, align 8
  %23 = getelementptr inbounds nuw %struct.SDL_GPUDevice, ptr %22, i32 0, i32 86
  %24 = load i8, ptr %23, align 4, !range !5, !noundef !6
  %25 = trunc i8 %24 to i1
  br i1 %25, label %26, label %51

26:                                               ; preds = %17
  %27 = load ptr, ptr %3, align 8
  %28 = getelementptr inbounds nuw %struct.Pass, ptr %27, i32 0, i32 1
  %29 = load i8, ptr %28, align 8, !range !5, !noundef !6
  %30 = trunc i8 %29 to i1
  br i1 %30, label %50, label %31

31:                                               ; preds = %26
  br label %32

32:                                               ; preds = %31
  br label %33

33:                                               ; preds = %45, %32
  br label %34

34:                                               ; preds = %33
  call void @llvm.lifetime.start.p0(i64 4, ptr %7) #6
  %35 = call i32 @SDL_ReportAssertion_REAL(ptr noundef @SDL_BindGPUComputePipeline_REAL.sdl_assert_data, ptr noundef @__func__.SDL_BindGPUComputePipeline_REAL, ptr noundef @.str.8, i32 noundef 2234)
  store i32 %35, ptr %7, align 4
  %36 = load i32, ptr %7, align 4
  %37 = icmp eq i32 %36, 0
  br i1 %37, label %38, label %39

38:                                               ; preds = %34
  store i32 4, ptr %6, align 4
  br label %45

39:                                               ; preds = %34
  %40 = load i32, ptr %7, align 4
  %41 = icmp eq i32 %40, 1
  br i1 %41, label %42, label %43

42:                                               ; preds = %39
  call void @llvm.debugtrap()
  br label %43

43:                                               ; preds = %42, %39
  br label %44

44:                                               ; preds = %43
  store i32 5, ptr %6, align 4
  br label %45

45:                                               ; preds = %44, %38
  call void @llvm.lifetime.end.p0(i64 4, ptr %7) #6
  %46 = load i32, ptr %6, align 4
  switch i32 %46, label %71 [
    i32 4, label %33
    i32 5, label %47
  ]

47:                                               ; preds = %45
  br label %48

48:                                               ; preds = %47
  br label %49

49:                                               ; preds = %48
  store i32 1, ptr %6, align 4
  br label %68

50:                                               ; preds = %26
  br label %51

51:                                               ; preds = %50, %17
  %52 = load ptr, ptr %3, align 8
  %53 = getelementptr inbounds nuw %struct.Pass, ptr %52, i32 0, i32 0
  %54 = load ptr, ptr %53, align 8
  %55 = getelementptr inbounds nuw %struct.CommandBufferCommonHeader, ptr %54, i32 0, i32 0
  %56 = load ptr, ptr %55, align 8
  %57 = getelementptr inbounds nuw %struct.SDL_GPUDevice, ptr %56, i32 0, i32 43
  %58 = load ptr, ptr %57, align 8
  %59 = load ptr, ptr %3, align 8
  %60 = getelementptr inbounds nuw %struct.Pass, ptr %59, i32 0, i32 0
  %61 = load ptr, ptr %60, align 8
  %62 = load ptr, ptr %4, align 8
  call void %58(ptr noundef %61, ptr noundef %62)
  %63 = load ptr, ptr %3, align 8
  %64 = getelementptr inbounds nuw %struct.Pass, ptr %63, i32 0, i32 0
  %65 = load ptr, ptr %64, align 8
  store ptr %65, ptr %5, align 8
  %66 = load ptr, ptr %5, align 8
  %67 = getelementptr inbounds nuw %struct.CommandBufferCommonHeader, ptr %66, i32 0, i32 4
  store i8 1, ptr %67, align 8
  store i32 0, ptr %6, align 4
  br label %68

68:                                               ; preds = %51, %49, %15, %10
  call void @llvm.lifetime.end.p0(i64 8, ptr %5) #6
  %69 = load i32, ptr %6, align 4
  switch i32 %69, label %71 [
    i32 0, label %70
    i32 1, label %70
  ]

70:                                               ; preds = %68, %68
  ret void

71:                                               ; preds = %68, %45
  unreachable
}